; Function Attrs: mustprogress uwtable
define noundef zeroext i1 @_ZN6casadi15GenericExternal11get_diff_inEx(ptr noundef nonnull readonly align 8 captures(none) dereferenceable(1560) %0, i64 noundef %1) unnamed_addr #3 align 2 {
  %3 = getelementptr inbounds nuw i8, ptr %0, i64 1544
  %4 = load ptr, ptr %3, align 8, !tbaa !180
  %.not = icmp eq ptr %4, null
  br i1 %.not, label %8, label %5

5:                                                ; preds = %2
  %6 = tail call noundef i32 %4(i64 noundef %1)
  %7 = icmp ne i32 %6, 0
  br label %8

8:                                                ; preds = %2, %5
  %.0 = phi i1 [ %7, %5 ], [ true, %2 ]
  ret i1 %.0
}